; Function Attrs: nounwind uwtable
define hidden noundef zeroext i1 @SDL_InitGamepads() local_unnamed_addr #0 {
  %1 = alloca %union.SDL_Event, align 8
  store i1 true, ptr @SDL_gamepads_initialized, align 1
  %2 = tail call zeroext i1 @SDL_AddEventWatch_REAL(ptr noundef nonnull @SDL_GamepadEventWatcher, ptr noundef null) #10
  %3 = tail call ptr @SDL_GetJoysticks_REAL(ptr noundef null) #10
  %.not = icmp eq ptr %3, null
  br i1 %.not, label %18, label %.preheader

.preheader:                                       ; preds = %0
  %4 = load i32, ptr %3, align 4
  %.not1011 = icmp eq i32 %4, 0
  br i1 %.not1011, label %._crit_edge, label %.lr.ph

.lr.ph:                                           ; preds = %.preheader
  %5 = getelementptr inbounds nuw i8, ptr %1, i64 8
  %6 = getelementptr inbounds nuw i8, ptr %1, i64 16
  br label %7

7:                                                ; preds = %.lr.ph, %15
  %indvars.iv = phi i64 [ 0, %.lr.ph ], [ %indvars.iv.next, %15 ]
  %8 = phi i32 [ %4, %.lr.ph ], [ %17, %15 ]
  %9 = call zeroext i1 @SDL_IsGamepad_REAL(i32 noundef %8)
  br i1 %9, label %10, label %15

10:                                               ; preds = %7
  %11 = getelementptr inbounds nuw i32, ptr %3, i64 %indvars.iv
  %12 = load i32, ptr %11, align 4
  call void @llvm.lifetime.start.p0(i64 128, ptr nonnull %1) #10
  %.b1.i = load i1, ptr @SDL_gamepads_initialized, align 1
  br i1 %.b1.i, label %13, label %SDL_PrivateGamepadAdded.exit

13:                                               ; preds = %10
  store i32 1619, ptr %1, align 8
  store i64 0, ptr %5, align 8
  store i32 %12, ptr %6, align 8
  %14 = call zeroext i1 @SDL_PushEvent_REAL(ptr noundef nonnull %1) #10
  br label %SDL_PrivateGamepadAdded.exit

SDL_PrivateGamepadAdded.exit:                     ; preds = %10, %13
  call void @llvm.lifetime.end.p0(i64 128, ptr nonnull %1) #10
  br label %15

15:                                               ; preds = %7, %SDL_PrivateGamepadAdded.exit
  %indvars.iv.next = add nuw nsw i64 %indvars.iv, 1
  %16 = getelementptr inbounds nuw i32, ptr %3, i64 %indvars.iv.next
  %17 = load i32, ptr %16, align 4
  %.not10 = icmp eq i32 %17, 0
  br i1 %.not10, label %._crit_edge, label %7, !llvm.loop !32

._crit_edge:                                      ; preds = %15, %.preheader
  call void @SDL_free_REAL(ptr noundef nonnull %3) #10
  br label %18

18:                                               ; preds = %._crit_edge, %0
  ret i1 true
}